; ModuleID = '36/1610.c'
source_filename = "36/1610.c"
target datalayout = "e-m:e-p270:32:32-p271:32:32-p272:64:64-i64:64-f80:128-n8:16:32:64-S128"
target triple = "x86_64-pc-linux-gnu"

@.str = private unnamed_addr constant [6 x i8] c"%s %s\00", align 1
@.str.1 = private unnamed_addr constant [3 x i8] c"NO\00", align 1
@.str.2 = private unnamed_addr constant [4 x i8] c"YES\00", align 1

; Function Attrs: noinline nounwind uwtable
define dso_local i32 @main() #0 {
  %1 = alloca i32, align 4
  %2 = alloca [500 x i8], align 16
  %3 = alloca [500 x i8], align 16
  %4 = alloca [500 x i32], align 16
  %5 = alloca i32, align 4
  %6 = alloca i32, align 4
  %7 = alloca i32, align 4
  store i32 0, i32* %1, align 4
  %8 = bitcast [500 x i8]* %2 to i8*
  call void @llvm.memset.p0i8.i64(i8* align 16 %8, i8 0, i64 500, i1 false)
  %9 = bitcast [500 x i8]* %3 to i8*
  call void @llvm.memset.p0i8.i64(i8* align 16 %9, i8 0, i64 500, i1 false)
  %10 = bitcast [500 x i32]* %4 to i8*
  call void @llvm.memset.p0i8.i64(i8* align 16 %10, i8 0, i64 2000, i1 false)
  store i32 0, i32* %5, align 4
  %11 = getelementptr inbounds [500 x i8], [500 x i8]* %2, i64 0, i64 0
  %12 = getelementptr inbounds [500 x i8], [500 x i8]* %3, i64 0, i64 0
  %13 = call i32 (i8*, ...) @__isoc99_scanf(i8* getelementptr inbounds ([6 x i8], [6 x i8]* @.str, i64 0, i64 0), i8* %11, i8* %12)
  %14 = getelementptr inbounds [500 x i8], [500 x i8]* %2, i64 0, i64 0
  %15 = call i64 @strlen(i8* %14) #4
  %16 = getelementptr inbounds [500 x i8], [500 x i8]* %3, i64 0, i64 0
  %17 = call i64 @strlen(i8* %16) #4
  %18 = icmp ne i64 %15, %17
  br i1 %18, label %19, label %21

19:                                               ; preds = %0
  %20 = call i32 (i8*, ...) @printf(i8* getelementptr inbounds ([3 x i8], [3 x i8]* @.str.1, i64 0, i64 0))
  store i32 0, i32* %1, align 4
  br label %100

21:                                               ; preds = %0
  store i32 0, i32* %6, align 4
  br label %22

22:                                               ; preds = %69, %21
  %23 = load i32, i32* %6, align 4
  %24 = sext i32 %23 to i64
  %25 = getelementptr inbounds [500 x i8], [500 x i8]* %2, i64 0, i64 0
  %26 = call i64 @strlen(i8* %25) #4
  %27 = icmp ult i64 %24, %26
  br i1 %27, label %28, label %72

28:                                               ; preds = %22
  store i32 0, i32* %7, align 4
  br label %29

29:                                               ; preds = %65, %28
  %30 = load i32, i32* %7, align 4
  %31 = sext i32 %30 to i64
  %32 = getelementptr inbounds [500 x i8], [500 x i8]* %3, i64 0, i64 0
  %33 = call i64 @strlen(i8* %32) #4
  %34 = icmp ult i64 %31, %33
  br i1 %34, label %35, label %68

35:                                               ; preds = %29
  %36 = load i32, i32* %6, align 4
  %37 = sext i32 %36 to i64
  %38 = getelementptr inbounds [500 x i8], [500 x i8]* %2, i64 0, i64 %37
  %39 = load i8, i8* %38, align 1
  %40 = sext i8 %39 to i32
  %41 = load i32, i32* %7, align 4
  %42 = sext i32 %41 to i64
  %43 = getelementptr inbounds [500 x i8], [500 x i8]* %3, i64 0, i64 %42
  %44 = load i8, i8* %43, align 1
  %45 = sext i8 %44 to i32
  %46 = icmp eq i32 %40, %45
  br i1 %46, label %47, label %64

47:                                               ; preds = %35
  %48 = load i32, i32* %6, align 4
  %49 = sext i32 %48 to i64
  %50 = getelementptr inbounds [500 x i8], [500 x i8]* %2, i64 0, i64 %49
  %51 = load i8, i8* %50, align 1
  %52 = sext i8 %51 to i32
  %53 = icmp ne i32 %52, 48
  br i1 %53, label %54, label %64

54:                                               ; preds = %47
  %55 = load i32, i32* %7, align 4
  %56 = sext i32 %55 to i64
  %57 = getelementptr inbounds [500 x i32], [500 x i32]* %4, i64 0, i64 %56
  %58 = load i32, i32* %57, align 4
  %59 = icmp eq i32 %58, 0
  br i1 %59, label %60, label %64

60:                                               ; preds = %54
  %61 = load i32, i32* %7, align 4
  %62 = sext i32 %61 to i64
  %63 = getelementptr inbounds [500 x i32], [500 x i32]* %4, i64 0, i64 %62
  store i32 1, i32* %63, align 4
  br label %68

64:                                               ; preds = %54, %47, %35
  br label %65

65:                                               ; preds = %64
  %66 = load i32, i32* %7, align 4
  %67 = add nsw i32 %66, 1
  store i32 %67, i32* %7, align 4
  br label %29

68:                                               ; preds = %60, %29
  br label %69

69:                                               ; preds = %68
  %70 = load i32, i32* %6, align 4
  %71 = add nsw i32 %70, 1
  store i32 %71, i32* %6, align 4
  br label %22

72:                                               ; preds = %22
  store i32 0, i32* %6, align 4
  br label %73

73:                                               ; preds = %86, %72
  %74 = load i32, i32* %6, align 4
  %75 = sext i32 %74 to i64
  %76 = getelementptr inbounds [500 x i8], [500 x i8]* %3, i64 0, i64 0
  %77 = call i64 @strlen(i8* %76) #4
  %78 = icmp ult i64 %75, %77
  br i1 %78, label %79, label %89

79:                                               ; preds = %73
  %80 = load i32, i32* %5, align 4
  %81 = load i32, i32* %6, align 4
  %82 = sext i32 %81 to i64
  %83 = getelementptr inbounds [500 x i32], [500 x i32]* %4, i64 0, i64 %82
  %84 = load i32, i32* %83, align 4
  %85 = add nsw i32 %80, %84
  store i32 %85, i32* %5, align 4
  br label %86

86:                                               ; preds = %79
  %87 = load i32, i32* %6, align 4
  %88 = add nsw i32 %87, 1
  store i32 %88, i32* %6, align 4
  br label %73

89:                                               ; preds = %73
  %90 = load i32, i32* %5, align 4
  %91 = sext i32 %90 to i64
  %92 = getelementptr inbounds [500 x i8], [500 x i8]* %3, i64 0, i64 0
  %93 = call i64 @strlen(i8* %92) #4
  %94 = icmp eq i64 %91, %93
  br i1 %94, label %95, label %97

95:                                               ; preds = %89
  %96 = call i32 (i8*, ...) @printf(i8* getelementptr inbounds ([4 x i8], [4 x i8]* @.str.2, i64 0, i64 0))
  br label %99

97:                                               ; preds = %89
  %98 = call i32 (i8*, ...) @printf(i8* getelementptr inbounds ([3 x i8], [3 x i8]* @.str.1, i64 0, i64 0))
  br label %99

99:                                               ; preds = %97, %95
  br label %100

100:                                              ; preds = %19, %99
  %101 = load i32, i32* %1, align 4
  ret i32 %101
}

; Function Attrs: argmemonly nounwind willreturn
declare void @llvm.memset.p0i8.i64(i8* nocapture writeonly, i8, i64, i1 immarg) #1

declare dso_local i32 @__isoc99_scanf(i8*, ...) #2

; Function Attrs: nounwind readonly
declare dso_local i64 @strlen(i8*) #3

declare dso_local i32 @printf(i8*, ...) #2


!llvm.module.flags = !{!0}
!llvm.ident = !{!1}

!0 = !{i32 1, !"wchar_size", i32 4}
!1 = !{!"clang version 10.0.0-4ubuntu1 "}
