; ModuleID = 'source-C-CXX/35/1610.c'
source_filename = "source-C-CXX/35/1610.c"
target datalayout = "e-m:e-p270:32:32-p271:32:32-p272:64:64-i64:64-f80:128-n8:16:32:64-S128"
target triple = "x86_64-pc-linux-gnu"

@.str = private unnamed_addr constant [6 x i8] c"%s %s\00", align 1
@.str.1 = private unnamed_addr constant [3 x i8] c"NO\00", align 1
@.str.2 = private unnamed_addr constant [4 x i8] c"YES\00", align 1

; Function Attrs: nofree nounwind sspstrong uwtable
define dso_local i32 @main() local_unnamed_addr #0 {
  %1 = alloca [500 x i8], align 16
  %2 = alloca [500 x i8], align 16
  %3 = alloca [500 x i32], align 16
  %4 = getelementptr inbounds [500 x i8], [500 x i8]* %1, i64 0, i64 0
  call void @llvm.lifetime.start.p0i8(i64 500, i8* nonnull %4) #6
  call void @llvm.memset.p0i8.i64(i8* noundef nonnull align 16 dereferenceable(500) %4, i8 0, i64 500, i1 false)
  %5 = getelementptr inbounds [500 x i8], [500 x i8]* %2, i64 0, i64 0
  call void @llvm.lifetime.start.p0i8(i64 500, i8* nonnull %5) #6
  call void @llvm.memset.p0i8.i64(i8* noundef nonnull align 16 dereferenceable(500) %5, i8 0, i64 500, i1 false)
  %6 = bitcast [500 x i32]* %3 to i8*
  call void @llvm.lifetime.start.p0i8(i64 2000, i8* nonnull %6) #6
  call void @llvm.memset.p0i8.i64(i8* noundef nonnull align 16 dereferenceable(2000) %6, i8 0, i64 2000, i1 false)
  %7 = call i32 (i8*, ...) @__isoc99_scanf(i8* getelementptr inbounds ([6 x i8], [6 x i8]* @.str, i64 0, i64 0), i8* nonnull %4, i8* nonnull %5)
  %8 = call i64 @strlen(i8* noundef nonnull %4) #7
  %9 = call i64 @strlen(i8* noundef nonnull %5) #7
  %10 = icmp eq i64 %8, %9
  br i1 %10, label %11, label %136

11:                                               ; preds = %0
  %12 = icmp eq i64 %8, 0
  br i1 %12, label %136, label %13

13:                                               ; preds = %11, %30
  %14 = phi i64 [ %31, %30 ], [ 0, %11 ]
  %15 = getelementptr inbounds [500 x i8], [500 x i8]* %1, i64 0, i64 %14
  %16 = load i8, i8* %15, align 1, !tbaa !5
  %17 = icmp eq i8 %16, 48
  br i1 %17, label %30, label %18

18:                                               ; preds = %13, %33
  %19 = phi i64 [ %34, %33 ], [ 0, %13 ]
  %20 = getelementptr inbounds [500 x i8], [500 x i8]* %2, i64 0, i64 %19
  %21 = load i8, i8* %20, align 1, !tbaa !5
  %22 = icmp eq i8 %16, %21
  br i1 %22, label %23, label %33

23:                                               ; preds = %18
  %24 = getelementptr inbounds [500 x i32], [500 x i32]* %3, i64 0, i64 %19
  %25 = load i32, i32* %24, align 4, !tbaa !8
  %26 = icmp eq i32 %25, 0
  br i1 %26, label %27, label %33

27:                                               ; preds = %23
  %28 = and i64 %19, 4294967295
  %29 = getelementptr inbounds [500 x i32], [500 x i32]* %3, i64 0, i64 %28
  store i32 1, i32* %29, align 4, !tbaa !8
  br label %30

30:                                               ; preds = %33, %13, %27
  %31 = add nuw nsw i64 %14, 1
  %32 = icmp eq i64 %31, %8
  br i1 %32, label %36, label %13, !llvm.loop !10

33:                                               ; preds = %23, %18
  %34 = add nuw i64 %19, 1
  %35 = icmp eq i64 %34, %8
  br i1 %35, label %30, label %18, !llvm.loop !12

36:                                               ; preds = %30
  br i1 %12, label %136, label %37

37:                                               ; preds = %36
  %38 = icmp ult i64 %8, 8
  br i1 %38, label %120, label %39

39:                                               ; preds = %37
  %40 = and i64 %8, -8
  %41 = add i64 %40, -8
  %42 = lshr exact i64 %41, 3
  %43 = add nuw nsw i64 %42, 1
  %44 = and i64 %43, 3
  %45 = icmp ult i64 %41, 24
  br i1 %45, label %91, label %46

46:                                               ; preds = %39
  %47 = and i64 %43, 4611686018427387900
  br label %48

48:                                               ; preds = %48, %46
  %49 = phi i64 [ 0, %46 ], [ %88, %48 ]
  %50 = phi <4 x i32> [ zeroinitializer, %46 ], [ %86, %48 ]
  %51 = phi <4 x i32> [ zeroinitializer, %46 ], [ %87, %48 ]
  %52 = phi i64 [ %47, %46 ], [ %89, %48 ]
  %53 = getelementptr inbounds [500 x i32], [500 x i32]* %3, i64 0, i64 %49
  %54 = bitcast i32* %53 to <4 x i32>*
  %55 = load <4 x i32>, <4 x i32>* %54, align 16, !tbaa !8
  %56 = getelementptr inbounds i32, i32* %53, i64 4
  %57 = bitcast i32* %56 to <4 x i32>*
  %58 = load <4 x i32>, <4 x i32>* %57, align 16, !tbaa !8
  %59 = add <4 x i32> %55, %50
  %60 = add <4 x i32> %58, %51
  %61 = or i64 %49, 8
  %62 = getelementptr inbounds [500 x i32], [500 x i32]* %3, i64 0, i64 %61
  %63 = bitcast i32* %62 to <4 x i32>*
  %64 = load <4 x i32>, <4 x i32>* %63, align 16, !tbaa !8
  %65 = getelementptr inbounds i32, i32* %62, i64 4
  %66 = bitcast i32* %65 to <4 x i32>*
  %67 = load <4 x i32>, <4 x i32>* %66, align 16, !tbaa !8
  %68 = add <4 x i32> %64, %59
  %69 = add <4 x i32> %67, %60
  %70 = or i64 %49, 16
  %71 = getelementptr inbounds [500 x i32], [500 x i32]* %3, i64 0, i64 %70
  %72 = bitcast i32* %71 to <4 x i32>*
  %73 = load <4 x i32>, <4 x i32>* %72, align 16, !tbaa !8
  %74 = getelementptr inbounds i32, i32* %71, i64 4
  %75 = bitcast i32* %74 to <4 x i32>*
  %76 = load <4 x i32>, <4 x i32>* %75, align 16, !tbaa !8
  %77 = add <4 x i32> %73, %68
  %78 = add <4 x i32> %76, %69
  %79 = or i64 %49, 24
  %80 = getelementptr inbounds [500 x i32], [500 x i32]* %3, i64 0, i64 %79
  %81 = bitcast i32* %80 to <4 x i32>*
  %82 = load <4 x i32>, <4 x i32>* %81, align 16, !tbaa !8
  %83 = getelementptr inbounds i32, i32* %80, i64 4
  %84 = bitcast i32* %83 to <4 x i32>*
  %85 = load <4 x i32>, <4 x i32>* %84, align 16, !tbaa !8
  %86 = add <4 x i32> %82, %77
  %87 = add <4 x i32> %85, %78
  %88 = add nuw i64 %49, 32
  %89 = add i64 %52, -4
  %90 = icmp eq i64 %89, 0
  br i1 %90, label %91, label %48, !llvm.loop !13

91:                                               ; preds = %48, %39
  %92 = phi <4 x i32> [ undef, %39 ], [ %86, %48 ]
  %93 = phi <4 x i32> [ undef, %39 ], [ %87, %48 ]
  %94 = phi i64 [ 0, %39 ], [ %88, %48 ]
  %95 = phi <4 x i32> [ zeroinitializer, %39 ], [ %86, %48 ]
  %96 = phi <4 x i32> [ zeroinitializer, %39 ], [ %87, %48 ]
  %97 = icmp eq i64 %44, 0
  br i1 %97, label %114, label %98

98:                                               ; preds = %91, %98
  %99 = phi i64 [ %111, %98 ], [ %94, %91 ]
  %100 = phi <4 x i32> [ %109, %98 ], [ %95, %91 ]
  %101 = phi <4 x i32> [ %110, %98 ], [ %96, %91 ]
  %102 = phi i64 [ %112, %98 ], [ %44, %91 ]
  %103 = getelementptr inbounds [500 x i32], [500 x i32]* %3, i64 0, i64 %99
  %104 = bitcast i32* %103 to <4 x i32>*
  %105 = load <4 x i32>, <4 x i32>* %104, align 16, !tbaa !8
  %106 = getelementptr inbounds i32, i32* %103, i64 4
  %107 = bitcast i32* %106 to <4 x i32>*
  %108 = load <4 x i32>, <4 x i32>* %107, align 16, !tbaa !8
  %109 = add <4 x i32> %105, %100
  %110 = add <4 x i32> %108, %101
  %111 = add nuw i64 %99, 8
  %112 = add i64 %102, -1
  %113 = icmp eq i64 %112, 0
  br i1 %113, label %114, label %98, !llvm.loop !15

114:                                              ; preds = %98, %91
  %115 = phi <4 x i32> [ %92, %91 ], [ %109, %98 ]
  %116 = phi <4 x i32> [ %93, %91 ], [ %110, %98 ]
  %117 = add <4 x i32> %116, %115
  %118 = call i32 @llvm.vector.reduce.add.v4i32(<4 x i32> %117)
  %119 = icmp eq i64 %8, %40
  br i1 %119, label %131, label %120

120:                                              ; preds = %37, %114
  %121 = phi i64 [ 0, %37 ], [ %40, %114 ]
  %122 = phi i32 [ 0, %37 ], [ %118, %114 ]
  br label %123

123:                                              ; preds = %120, %123
  %124 = phi i64 [ %129, %123 ], [ %121, %120 ]
  %125 = phi i32 [ %128, %123 ], [ %122, %120 ]
  %126 = getelementptr inbounds [500 x i32], [500 x i32]* %3, i64 0, i64 %124
  %127 = load i32, i32* %126, align 4, !tbaa !8
  %128 = add nsw i32 %127, %125
  %129 = add nuw nsw i64 %124, 1
  %130 = icmp eq i64 %129, %8
  br i1 %130, label %131, label %123, !llvm.loop !17

131:                                              ; preds = %123, %114
  %132 = phi i32 [ %118, %114 ], [ %128, %123 ]
  %133 = sext i32 %132 to i64
  %134 = icmp eq i64 %8, %133
  %135 = select i1 %134, i8* getelementptr inbounds ([4 x i8], [4 x i8]* @.str.2, i64 0, i64 0), i8* getelementptr inbounds ([3 x i8], [3 x i8]* @.str.1, i64 0, i64 0)
  br label %136

136:                                              ; preds = %131, %36, %11, %0
  %137 = phi i8* [ getelementptr inbounds ([3 x i8], [3 x i8]* @.str.1, i64 0, i64 0), %0 ], [ getelementptr inbounds ([4 x i8], [4 x i8]* @.str.2, i64 0, i64 0), %11 ], [ getelementptr inbounds ([4 x i8], [4 x i8]* @.str.2, i64 0, i64 0), %36 ], [ %135, %131 ]
  %138 = call i32 (i8*, ...) @printf(i8* nonnull dereferenceable(1) %137)
  call void @llvm.lifetime.end.p0i8(i64 2000, i8* nonnull %6) #6
  call void @llvm.lifetime.end.p0i8(i64 500, i8* nonnull %5) #6
  call void @llvm.lifetime.end.p0i8(i64 500, i8* nonnull %4) #6
  ret i32 0
}

; Function Attrs: argmemonly mustprogress nofree nosync nounwind willreturn
declare void @llvm.lifetime.start.p0i8(i64 immarg, i8* nocapture) #1

; Function Attrs: argmemonly mustprogress nofree nounwind willreturn writeonly
declare void @llvm.memset.p0i8.i64(i8* nocapture writeonly, i8, i64, i1 immarg) #2

; Function Attrs: nofree nounwind
declare noundef i32 @__isoc99_scanf(i8* nocapture noundef readonly, ...) local_unnamed_addr #3

; Function Attrs: argmemonly mustprogress nofree nounwind readonly willreturn
declare i64 @strlen(i8* nocapture) local_unnamed_addr #4

; Function Attrs: nofree nounwind
declare noundef i32 @printf(i8* nocapture noundef readonly, ...) local_unnamed_addr #3

; Function Attrs: argmemonly mustprogress nofree nosync nounwind willreturn
declare void @llvm.lifetime.end.p0i8(i64 immarg, i8* nocapture) #1

; Function Attrs: nofree nosync nounwind readnone willreturn
declare i32 @llvm.vector.reduce.add.v4i32(<4 x i32>) #5


!llvm.module.flags = !{!0, !1, !2, !3}
!llvm.ident = !{!4}

!0 = !{i32 1, !"wchar_size", i32 4}
!1 = !{i32 7, !"PIC Level", i32 2}
!2 = !{i32 7, !"PIE Level", i32 2}
!3 = !{i32 7, !"uwtable", i32 1}
!4 = !{!"clang version 13.0.0"}
!5 = !{!6, !6, i64 0}
!6 = !{!"omnipotent char", !7, i64 0}
!7 = !{!"Simple C/C++ TBAA"}
!8 = !{!9, !9, i64 0}
!9 = !{!"int", !6, i64 0}
!10 = distinct !{!10, !11}
!11 = !{!"llvm.loop.mustprogress"}
!12 = distinct !{!12, !11}
!13 = distinct !{!13, !11, !14}
!14 = !{!"llvm.loop.isvectorized", i32 1}
!15 = distinct !{!15, !16}
!16 = !{!"llvm.loop.unroll.disable"}
!17 = distinct !{!17, !11, !18, !14}
!18 = !{!"llvm.loop.unroll.runtime.disable"}
